target datalayout = "e-m:e-p270:32:32-p271:32:32-p272:64:64-i64:64-i128:128-f80:128-n8:16:32:64-S128"
target triple = "x86_64-pc-linux-gnu"

%struct.h5tools_dump_header_t = type { ptr, ptr, ptr, ptr, ptr, ptr, ptr, ptr, ptr, ptr, ptr, ptr, ptr, ptr, ptr, ptr, ptr, ptr, ptr, ptr, ptr, ptr, ptr, ptr, ptr, ptr, ptr, ptr, ptr, ptr, ptr, ptr, ptr, ptr, ptr, ptr, ptr, ptr, ptr, ptr, ptr, ptr, ptr, ptr, ptr, ptr, ptr, ptr, ptr, ptr, ptr, ptr, ptr, ptr, ptr, ptr, ptr, ptr, ptr, ptr, ptr, ptr, ptr, ptr, ptr, ptr, ptr, ptr, ptr, ptr, ptr, ptr, ptr, ptr, ptr, ptr, ptr, ptr, ptr, ptr, ptr, ptr, ptr, ptr, ptr, ptr, ptr, ptr, ptr, ptr, ptr, ptr, ptr, ptr, ptr }
%struct.h5tools_str_t = type { ptr, i64, i64 }
%struct.h5tool_format_t = type { i8, ptr, ptr, ptr, ptr, ptr, ptr, ptr, ptr, ptr, ptr, ptr, ptr, ptr, ptr, ptr, ptr, ptr, i32, i32, i32, ptr, ptr, ptr, i32, ptr, ptr, ptr, ptr, ptr, ptr, ptr, ptr, ptr, ptr, ptr, ptr, ptr, ptr, ptr, ptr, i32, i64, ptr, ptr, ptr, ptr, ptr, i32, ptr, i32, i32, ptr, i32, ptr, ptr, ptr, ptr, i32, i32 }
%struct.h5tools_context_t = type { i64, i64, i32, i32, [32 x i64], [32 x i64], i32, i64, i32, i64, i32, i32, [32 x i64], [32 x i64], i64, ptr, ptr, i32, i32 }

@.str.20 = private unnamed_addr constant [3 x i8] c"%s\00", align 1
@.str.21 = private unnamed_addr constant [2 x i8] c" \00", align 1
@h5tools_dump_header_format = global ptr null, align 8
@.str.60 = private unnamed_addr constant [4 x i8] c"%s \00", align 1

; Function Attrs: nounwind uwtable
define void @h5tools_dump_dataspace(ptr noundef %0, ptr noundef %1, ptr noundef %2, i64 noundef %3) #0 {
  %5 = alloca ptr, align 8
  %6 = alloca ptr, align 8
  %7 = alloca ptr, align 8
  %8 = alloca i64, align 8
  %9 = alloca %struct.h5tools_str_t, align 8
  %10 = alloca i64, align 8
  %11 = alloca i64, align 8
  store ptr %0, ptr %5, align 8, !tbaa !8
  store ptr %1, ptr %6, align 8, !tbaa !10
  store ptr %2, ptr %7, align 8, !tbaa !12
  store i64 %3, ptr %8, align 8, !tbaa !14
  call void @llvm.lifetime.start.p0(i64 24, ptr %9) #10
  call void @llvm.lifetime.start.p0(i64 8, ptr %10) #10
  store i64 80, ptr %10, align 8, !tbaa !14
  call void @llvm.lifetime.start.p0(i64 8, ptr %11) #10
  %12 = load ptr, ptr %7, align 8, !tbaa !12
  %13 = getelementptr inbounds nuw %struct.h5tools_context_t, ptr %12, i32 0, i32 14
  %14 = load i64, ptr %13, align 8, !tbaa !26
  store i64 %14, ptr %11, align 8, !tbaa !14
  call void @llvm.memset.p0.i64(ptr align 8 %9, i8 0, i64 24, i1 false)
  %15 = load ptr, ptr %6, align 8, !tbaa !10
  %16 = getelementptr inbounds nuw %struct.h5tool_format_t, ptr %15, i32 0, i32 41
  %17 = load i32, ptr %16, align 8, !tbaa !23
  %18 = icmp ugt i32 %17, 0
  br i1 %18, label %19, label %24

19:                                               ; preds = %4
  %20 = load ptr, ptr %6, align 8, !tbaa !10
  %21 = getelementptr inbounds nuw %struct.h5tool_format_t, ptr %20, i32 0, i32 41
  %22 = load i32, ptr %21, align 8, !tbaa !23
  %23 = zext i32 %22 to i64
  store i64 %23, ptr %10, align 8, !tbaa !14
  br label %24

24:                                               ; preds = %19, %4
  %25 = load ptr, ptr %7, align 8, !tbaa !12
  %26 = getelementptr inbounds nuw %struct.h5tools_context_t, ptr %25, i32 0, i32 2
  store i32 1, ptr %26, align 8, !tbaa !46
  %27 = call ptr @h5tools_str_reset(ptr noundef %9)
  %28 = load ptr, ptr @h5tools_dump_header_format, align 8, !tbaa !3
  %29 = getelementptr inbounds nuw %struct.h5tools_dump_header_t, ptr %28, i32 0, i32 13
  %30 = load ptr, ptr %29, align 8, !tbaa !52
  %31 = call ptr (ptr, ptr, ...) @h5tools_str_append(ptr noundef %9, ptr noundef @.str.60, ptr noundef %30)
  %32 = load i64, ptr %8, align 8, !tbaa !14
  %33 = call i32 @h5tools_print_dataspace(ptr noundef %9, i64 noundef %32)
  %34 = load ptr, ptr @h5tools_dump_header_format, align 8, !tbaa !3
  %35 = getelementptr inbounds nuw %struct.h5tools_dump_header_t, ptr %34, i32 0, i32 46
  %36 = load ptr, ptr %35, align 8, !tbaa !53
  %37 = call i64 @strlen(ptr noundef %36) #11
  %38 = icmp ne i64 %37, 0
  br i1 %38, label %39, label %52

39:                                               ; preds = %24
  %40 = load ptr, ptr @h5tools_dump_header_format, align 8, !tbaa !3
  %41 = getelementptr inbounds nuw %struct.h5tools_dump_header_t, ptr %40, i32 0, i32 46
  %42 = load ptr, ptr %41, align 8, !tbaa !53
  %43 = call ptr (ptr, ptr, ...) @h5tools_str_append(ptr noundef %9, ptr noundef @.str.20, ptr noundef %42)
  %44 = load ptr, ptr @h5tools_dump_header_format, align 8, !tbaa !3
  %45 = getelementptr inbounds nuw %struct.h5tools_dump_header_t, ptr %44, i32 0, i32 14
  %46 = load ptr, ptr %45, align 8, !tbaa !54
  %47 = call i64 @strlen(ptr noundef %46) #11
  %48 = icmp ne i64 %47, 0
  br i1 %48, label %49, label %51

49:                                               ; preds = %39
  %50 = call ptr (ptr, ptr, ...) @h5tools_str_append(ptr noundef %9, ptr noundef @.str.21)
  br label %51

51:                                               ; preds = %49, %39
  br label %52

52:                                               ; preds = %51, %24
  %53 = load ptr, ptr @h5tools_dump_header_format, align 8, !tbaa !3
  %54 = getelementptr inbounds nuw %struct.h5tools_dump_header_t, ptr %53, i32 0, i32 14
  %55 = load ptr, ptr %54, align 8, !tbaa !54
  %56 = call i64 @strlen(ptr noundef %55) #11
  %57 = icmp ne i64 %56, 0
  br i1 %57, label %58, label %63

58:                                               ; preds = %52
  %59 = load ptr, ptr @h5tools_dump_header_format, align 8, !tbaa !3
  %60 = getelementptr inbounds nuw %struct.h5tools_dump_header_t, ptr %59, i32 0, i32 14
  %61 = load ptr, ptr %60, align 8, !tbaa !54
  %62 = call ptr (ptr, ptr, ...) @h5tools_str_append(ptr noundef %9, ptr noundef @.str.20, ptr noundef %61)
  br label %63

63:                                               ; preds = %58, %52
  %64 = load ptr, ptr %5, align 8, !tbaa !8
  %65 = load ptr, ptr %6, align 8, !tbaa !10
  %66 = load ptr, ptr %7, align 8, !tbaa !12
  %67 = load i64, ptr %10, align 8, !tbaa !14
  %68 = call zeroext i1 @h5tools_render_element(ptr noundef %64, ptr noundef %65, ptr noundef %66, ptr noundef %9, ptr noundef %11, i64 noundef %67, i64 noundef 0, i64 noundef 0)
  call void @h5tools_str_close(ptr noundef %9)
  call void @llvm.lifetime.end.p0(i64 8, ptr %11) #10
  call void @llvm.lifetime.end.p0(i64 8, ptr %10) #10
  call void @llvm.lifetime.end.p0(i64 24, ptr %9) #10
  ret void
}