; Function Attrs: nounwind uwtable
define void @h5tools_dump_dataspace(ptr noundef %0, ptr noundef %1, ptr noundef initializes((16, 20)) %2, i64 noundef %3) local_unnamed_addr #1 {
  %5 = alloca %struct.h5tools_str_t, align 8
  %6 = alloca i64, align 8
  call void @llvm.lifetime.start.p0(i64 24, ptr nonnull %5) #12
  call void @llvm.lifetime.start.p0(i64 8, ptr nonnull %6) #12
  %7 = getelementptr inbounds nuw i8, ptr %2, i64 1088
  %8 = load i64, ptr %7, align 8, !tbaa !16
  store i64 %8, ptr %6, align 8, !tbaa !19
  call void @llvm.memset.p0.i64(ptr noundef nonnull align 8 dereferenceable(24) %5, i8 0, i64 24, i1 false)
  %9 = getelementptr inbounds nuw i8, ptr %1, i64 320
  %10 = load i32, ptr %9, align 8, !tbaa !10
  %11 = getelementptr inbounds nuw i8, ptr %2, i64 16
  store i32 1, ptr %11, align 8, !tbaa !35
  %12 = call ptr @h5tools_str_reset(ptr noundef nonnull %5) #12
  %13 = load ptr, ptr @h5tools_dump_header_format, align 8, !tbaa !3
  %14 = getelementptr inbounds nuw i8, ptr %13, i64 104
  %15 = load ptr, ptr %14, align 8, !tbaa !41
  %16 = call ptr (ptr, ptr, ...) @h5tools_str_append(ptr noundef nonnull %5, ptr noundef nonnull @.str.60, ptr noundef %15) #12
  %17 = call i32 @h5tools_print_dataspace(ptr noundef nonnull %5, i64 noundef %3)
  %18 = load ptr, ptr @h5tools_dump_header_format, align 8, !tbaa !3
  %19 = getelementptr inbounds nuw i8, ptr %18, i64 368
  %20 = load ptr, ptr %19, align 8, !tbaa !42
  %char0 = load i8, ptr %20, align 1
  %.not9 = icmp eq i8 %char0, 0
  br i1 %.not9, label %28, label %21

21:                                               ; preds = %4
  %22 = call ptr (ptr, ptr, ...) @h5tools_str_append(ptr noundef nonnull %5, ptr noundef nonnull @.str.20, ptr noundef nonnull %20) #12
  %23 = load ptr, ptr @h5tools_dump_header_format, align 8, !tbaa !3
  %24 = getelementptr inbounds nuw i8, ptr %23, i64 112
  %25 = load ptr, ptr %24, align 8, !tbaa !43
  %char010 = load i8, ptr %25, align 1
  %.not11 = icmp eq i8 %char010, 0
  br i1 %.not11, label %28, label %26

26:                                               ; preds = %21
  %27 = call ptr (ptr, ptr, ...) @h5tools_str_append(ptr noundef nonnull %5, ptr noundef nonnull @.str.21) #12
  %.pre = load ptr, ptr @h5tools_dump_header_format, align 8, !tbaa !3
  br label %28

28:                                               ; preds = %21, %26, %4
  %29 = phi ptr [ %23, %21 ], [ %.pre, %26 ], [ %18, %4 ]
  %30 = getelementptr inbounds nuw i8, ptr %29, i64 112
  %31 = load ptr, ptr %30, align 8, !tbaa !43
  %char012 = load i8, ptr %31, align 1
  %.not13 = icmp eq i8 %char012, 0
  br i1 %.not13, label %34, label %32

32:                                               ; preds = %28
  %33 = call ptr (ptr, ptr, ...) @h5tools_str_append(ptr noundef nonnull %5, ptr noundef nonnull @.str.20, ptr noundef nonnull %31) #12
  br label %34

34:                                               ; preds = %32, %28
  %.not = icmp eq i32 %10, 0
  %narrow = select i1 %.not, i32 80, i32 %10
  %spec.select = zext i32 %narrow to i64
  %35 = call zeroext i1 @h5tools_render_element(ptr noundef %0, ptr noundef nonnull %1, ptr noundef nonnull %2, ptr noundef nonnull %5, ptr noundef nonnull %6, i64 noundef %spec.select, i64 noundef 0, i64 noundef 0) #12
  call void @h5tools_str_close(ptr noundef nonnull %5) #12
  call void @llvm.lifetime.end.p0(i64 8, ptr nonnull %6) #12
  call void @llvm.lifetime.end.p0(i64 24, ptr nonnull %5) #12
  ret void
}